target datalayout = "e-m:e-p270:32:32-p271:32:32-p272:64:64-i64:64-i128:128-f80:128-n8:16:32:64-S128"
target triple = "x86_64-pc-linux-gnu"

; Function Attrs: nounwind uwtable
define signext i8 @ssl3_cbc_record_digest_supported(ptr noundef %0) #0 {
  %2 = alloca i8, align 1
  %3 = alloca ptr, align 8
  store ptr %0, ptr %3, align 8, !tbaa !42
  %4 = load ptr, ptr %3, align 8, !tbaa !42
  %5 = call ptr @EVP_MD_CTX_get0_md(ptr noundef %4)
  %6 = call i32 @EVP_MD_get_type(ptr noundef %5)
  switch i32 %6, label %8 [
    i32 4, label %7
    i32 64, label %7
    i32 675, label %7
    i32 672, label %7
    i32 673, label %7
    i32 674, label %7
  ]

7:                                                ; preds = %1, %1, %1, %1, %1, %1
  store i8 1, ptr %2, align 1
  br label %9

8:                                                ; preds = %1
  store i8 0, ptr %2, align 1
  br label %9

9:                                                ; preds = %8, %7
  %10 = load i8, ptr %2, align 1
  ret i8 %10
}