; Function Attrs: nounwind uwtable
define signext range(i8 0, 2) i8 @ssl3_cbc_record_digest_supported(ptr noundef %0) local_unnamed_addr #0 {
  %2 = tail call ptr @EVP_MD_CTX_get0_md(ptr noundef %0) #13
  %3 = tail call i32 @EVP_MD_get_type(ptr noundef %2) #13
  switch i32 %3, label %4 [
    i32 4, label %5
    i32 64, label %5
    i32 675, label %5
    i32 672, label %5
    i32 673, label %5
    i32 674, label %5
  ]

4:                                                ; preds = %1
  br label %5

5:                                                ; preds = %1, %1, %1, %1, %1, %1, %4
  %.0 = phi i8 [ 0, %4 ], [ 1, %1 ], [ 1, %1 ], [ 1, %1 ], [ 1, %1 ], [ 1, %1 ], [ 1, %1 ]
  ret i8 %.0
}